Certificate:
    Data:
        Version: 3 (0x2)
        Serial Number: 1 (0x1)
    Signature Algorithm: sha256WithRSAEncryption
        Issuer: C=sg, ST=sg, L=sg, O=nus, OU=soc, CN=xtrap100.comp.nus.edu.sg
        Validity
            Not Before: Jun 20 15:40:37 2020 GMT
            Not After : Jun 20 15:40:37 2021 GMT
        Subject: C=sg, ST=sg, O=nus, OU=soc, CN=xtrap100.d2.comp.nus.edu.sg
        Subject Public Key Info:
            Public Key Algorithm: rsaEncryption
                Public-Key: (1024 bit)
                Modulus:
                    00:f5:fb:d9:e0:d2:f6:0a:78:12:63:96:b9:54:16:
                    ea:d7:c9:80:8f:ae:09:a9:93:73:00:cf:a9:f1:02:
                    c8:52:7a:ce:26:9a:a7:a4:f9:e7:8d:f5:b3:e3:e3:
                    31:67:9c:ee:7a:5b:df:74:65:9f:5a:67:03:4a:55:
                    ca:b5:d7:8b:72:7e:a3:0b:a8:26:01:72:cd:55:ac:
                    a8:ed:d1:48:91:46:c0:9d:9e:4f:aa:a2:1f:ac:05:
                    b7:81:8d:8a:71:59:7d:a2:c0:6f:3d:6f:af:42:fa:
                    b4:a0:b3:bd:e7:20:b6:4d:6c:15:c6:10:14:c5:7b:
                    24:2b:07:02:ab:b9:50:c3:e9
                Exponent: 65537 (0x10001)
        X509v3 extensions:
            X509v3 Basic Constraints: 
                CA:FALSE
            Netscape Comment: 
                OpenSSL Generated Certificate
            X509v3 Subject Key Identifier: 
                47:C0:99:E7:CA:0C:9B:B3:BE:A3:A0:A8:D8:D4:5C:78:52:7C:A5:C0
            X509v3 Authority Key Identifier: 
                keyid:76:7D:B5:4A:06:3A:95:1D:68:7F:E0:60:03:51:2D:90:F6:30:4C:CB

    Signature Algorithm: sha256WithRSAEncryption
         7d:d4:4f:63:20:3b:7c:c1:a6:94:d6:c6:b3:80:11:47:f8:90:
         db:ba:9f:90:b4:72:82:ac:86:e3:97:51:0a:2d:9a:ea:ec:90:
         3c:d6:c0:a2:b6:71:1a:7b:08:e5:5c:32:56:42:10:b4:dc:df:
         d1:dc:2c:c0:b4:ec:e5:41:b2:30:e9:7c:79:58:ec:af:ad:65:
         b3:ea:50:e1:55:8b:77:cd:4b:2c:51:fc:99:30:16:15:70:27:
         b4:d9:f9:91:e6:ff:3d:da:f7:48:3c:54:b2:02:51:48:d6:54:
         d5:e4:7f:71:f5:c7:fe:82:02:5a:6b:7a:37:07:c9:e5:2b:f5:
         c2:07
-----BEGIN CERTIFICATE-----
MIICszCCAhygAwIBAgIBATANBgkqhkiG9w0BAQsFADBmMQswCQYDVQQGEwJzZzEL
MAkGA1UECAwCc2cxCzAJBgNVBAcMAnNnMQwwCgYDVQQKDANudXMxDDAKBgNVBAsM
A3NvYzEhMB8GA1UEAwwYeHRyYXAxMDAuY29tcC5udXMuZWR1LnNnMB4XDTIwMDYy
MDE1NDAzN1oXDTIxMDYyMDE1NDAzN1owXDELMAkGA1UEBhMCc2cxCzAJBgNVBAgM
AnNnMQwwCgYDVQQKDANudXMxDDAKBgNVBAsMA3NvYzEkMCIGA1UEAwwbeHRyYXAx
MDAuZDIuY29tcC5udXMuZWR1LnNnMIGfMA0GCSqGSIb3DQEBAQUAA4GNADCBiQKB
gQD1+9ng0vYKeBJjlrlUFurXyYCPrgmpk3MAz6nxAshSes4mmqek+eeN9bPj4zFn
nO56W990ZZ9aZwNKVcq114tyfqMLqCYBcs1VrKjt0UiRRsCdnk+qoh+sBbeBjYpx
WX2iwG89b69C+rSgs73nILZNbBXGEBTFeyQrBwKruVDD6QIDAQABo3sweTAJBgNV
HRMEAjAAMCwGCWCGSAGG+EIBDQQfFh1PcGVuU1NMIEdlbmVyYXRlZCBDZXJ0aWZp
Y2F0ZTAdBgNVHQ4EFgQUR8CZ58oMm7O+o6Co2NRceFJ8pcAwHwYDVR0jBBgwFoAU
dn21SgY6lR1of+BgA1EtkPYwTMswDQYJKoZIhvcNAQELBQADgYEAfdRPYyA7fMGm
lNbGs4ARR/iQ27qfkLRygqyG45dRCi2a6uyQPNbAorZxGnsI5VwyVkIQtNzf0dws
wLTs5UGyMOl8eVjsr61ls+pQ4VWLd81LLFH8mTAWFXAntNn5keb/Pdr3SDxUsgJR
SNZU1eR/cfXH/oICWmt6NwfJ5Sv1wgc=
-----END CERTIFICATE-----
